; Function Attrs: mustprogress uwtable
define noundef i32 @_ZNK3net10SpdyFramer10error_codeEv(ptr noundef nonnull readonly align 8 captures(none) dereferenceable(259) %0) local_unnamed_addr #0 align 2 {
  %2 = getelementptr inbounds nuw i8, ptr %0, i64 240
  %3 = load ptr, ptr %2, align 8, !tbaa !99
  %.not = icmp eq ptr %3, null
  br i1 %.not, label %9, label %4

4:                                                ; preds = %1
  %5 = load ptr, ptr %3, align 8, !tbaa !9
  %6 = getelementptr inbounds nuw i8, ptr %5, i64 72
  %7 = load ptr, ptr %6, align 8
  %8 = tail call noundef i32 %7(ptr noundef nonnull align 8 dereferenceable(25) %3)
  br label %12

9:                                                ; preds = %1
  %10 = getelementptr inbounds nuw i8, ptr %0, i64 16
  %11 = load i32, ptr %10, align 8, !tbaa !90
  br label %12

12:                                               ; preds = %9, %4
  %.0 = phi i32 [ %8, %4 ], [ %11, %9 ]
  ret i32 %.0
}